#include <math.h>
#include <stdio.h>
#include <stdlib.h>
#include <string.h>

main()
{
int a,b,d,i,l,m,n;
long s=0;
char c[32],e[32];
scanf("%d %s %d",&a,c,&b);
if(c[0]=='0')
printf("%d\n",0);
else
{ 
l=strlen(c);
for(i=0;i<=l-1;i++)
{
if(c[i]<'A')
d=c[i]-'0';
else if(c[i]<'a')
d=c[i]-'A'+10;
else
d=c[i]-'a'+10;
s=s*a+d;
}                  
for(i=0;s>0;i++)
{
n=s%b;
if(n<10)
e[i]=n+'0';
else
e[i]=n-10+'A';
s=s/b;         
}
for(m=i-1;m>0;m--) 
printf("%c",e[m]);
printf("%c\n",e[0]);
}
getchar();
getchar();  
getchar();
getchar();
getchar();  
getchar();
getchar();
getchar();  
getchar();         
}