; ModuleID = '55/921.c'
source_filename = "55/921.c"
target datalayout = "e-m:e-p270:32:32-p271:32:32-p272:64:64-i64:64-f80:128-n8:16:32:64-S128"
target triple = "x86_64-pc-linux-gnu"

@.str = private unnamed_addr constant [9 x i8] c"%d %s %d\00", align 1
@.str.1 = private unnamed_addr constant [4 x i8] c"%d\0A\00", align 1
@.str.2 = private unnamed_addr constant [3 x i8] c"%c\00", align 1
@.str.3 = private unnamed_addr constant [4 x i8] c"%c\0A\00", align 1

; Function Attrs: noinline nounwind uwtable
define dso_local i32 @main() #0 {
  %1 = alloca i32, align 4
  %2 = alloca i32, align 4
  %3 = alloca i32, align 4
  %4 = alloca i32, align 4
  %5 = alloca i32, align 4
  %6 = alloca i32, align 4
  %7 = alloca i32, align 4
  %8 = alloca i32, align 4
  %9 = alloca i64, align 8
  %10 = alloca [32 x i8], align 16
  %11 = alloca [32 x i8], align 16
  store i32 0, i32* %1, align 4
  store i64 0, i64* %9, align 8
  %12 = getelementptr inbounds [32 x i8], [32 x i8]* %10, i64 0, i64 0
  %13 = call i32 (i8*, ...) @__isoc99_scanf(i8* getelementptr inbounds ([9 x i8], [9 x i8]* @.str, i64 0, i64 0), i32* %2, i8* %12, i32* %3)
  %14 = getelementptr inbounds [32 x i8], [32 x i8]* %10, i64 0, i64 0
  %15 = load i8, i8* %14, align 16
  %16 = sext i8 %15 to i32
  %17 = icmp eq i32 %16, 48
  br i1 %17, label %18, label %20

18:                                               ; preds = %0
  %19 = call i32 (i8*, ...) @printf(i8* getelementptr inbounds ([4 x i8], [4 x i8]* @.str.1, i64 0, i64 0), i32 0)
  br label %134

20:                                               ; preds = %0
  %21 = getelementptr inbounds [32 x i8], [32 x i8]* %10, i64 0, i64 0
  %22 = call i64 @strlen(i8* %21) #3
  %23 = trunc i64 %22 to i32
  store i32 %23, i32* %6, align 4
  store i32 0, i32* %5, align 4
  br label %24

24:                                               ; preds = %75, %20
  %25 = load i32, i32* %5, align 4
  %26 = load i32, i32* %6, align 4
  %27 = sub nsw i32 %26, 1
  %28 = icmp sle i32 %25, %27
  br i1 %28, label %29, label %78

29:                                               ; preds = %24
  %30 = load i32, i32* %5, align 4
  %31 = sext i32 %30 to i64
  %32 = getelementptr inbounds [32 x i8], [32 x i8]* %10, i64 0, i64 %31
  %33 = load i8, i8* %32, align 1
  %34 = sext i8 %33 to i32
  %35 = icmp slt i32 %34, 65
  br i1 %35, label %36, label %43

36:                                               ; preds = %29
  %37 = load i32, i32* %5, align 4
  %38 = sext i32 %37 to i64
  %39 = getelementptr inbounds [32 x i8], [32 x i8]* %10, i64 0, i64 %38
  %40 = load i8, i8* %39, align 1
  %41 = sext i8 %40 to i32
  %42 = sub nsw i32 %41, 48
  store i32 %42, i32* %4, align 4
  br label %67

43:                                               ; preds = %29
  %44 = load i32, i32* %5, align 4
  %45 = sext i32 %44 to i64
  %46 = getelementptr inbounds [32 x i8], [32 x i8]* %10, i64 0, i64 %45
  %47 = load i8, i8* %46, align 1
  %48 = sext i8 %47 to i32
  %49 = icmp slt i32 %48, 97
  br i1 %49, label %50, label %58

50:                                               ; preds = %43
  %51 = load i32, i32* %5, align 4
  %52 = sext i32 %51 to i64
  %53 = getelementptr inbounds [32 x i8], [32 x i8]* %10, i64 0, i64 %52
  %54 = load i8, i8* %53, align 1
  %55 = sext i8 %54 to i32
  %56 = sub nsw i32 %55, 65
  %57 = add nsw i32 %56, 10
  store i32 %57, i32* %4, align 4
  br label %66

58:                                               ; preds = %43
  %59 = load i32, i32* %5, align 4
  %60 = sext i32 %59 to i64
  %61 = getelementptr inbounds [32 x i8], [32 x i8]* %10, i64 0, i64 %60
  %62 = load i8, i8* %61, align 1
  %63 = sext i8 %62 to i32
  %64 = sub nsw i32 %63, 97
  %65 = add nsw i32 %64, 10
  store i32 %65, i32* %4, align 4
  br label %66

66:                                               ; preds = %58, %50
  br label %67

67:                                               ; preds = %66, %36
  %68 = load i64, i64* %9, align 8
  %69 = load i32, i32* %2, align 4
  %70 = sext i32 %69 to i64
  %71 = mul nsw i64 %68, %70
  %72 = load i32, i32* %4, align 4
  %73 = sext i32 %72 to i64
  %74 = add nsw i64 %71, %73
  store i64 %74, i64* %9, align 8
  br label %75

75:                                               ; preds = %67
  %76 = load i32, i32* %5, align 4
  %77 = add nsw i32 %76, 1
  store i32 %77, i32* %5, align 4
  br label %24

78:                                               ; preds = %24
  store i32 0, i32* %5, align 4
  br label %79

79:                                               ; preds = %110, %78
  %80 = load i64, i64* %9, align 8
  %81 = icmp sgt i64 %80, 0
  br i1 %81, label %82, label %113

82:                                               ; preds = %79
  %83 = load i64, i64* %9, align 8
  %84 = load i32, i32* %3, align 4
  %85 = sext i32 %84 to i64
  %86 = srem i64 %83, %85
  %87 = trunc i64 %86 to i32
  store i32 %87, i32* %8, align 4
  %88 = load i32, i32* %8, align 4
  %89 = icmp slt i32 %88, 10
  br i1 %89, label %90, label %97

90:                                               ; preds = %82
  %91 = load i32, i32* %8, align 4
  %92 = add nsw i32 %91, 48
  %93 = trunc i32 %92 to i8
  %94 = load i32, i32* %5, align 4
  %95 = sext i32 %94 to i64
  %96 = getelementptr inbounds [32 x i8], [32 x i8]* %11, i64 0, i64 %95
  store i8 %93, i8* %96, align 1
  br label %105

97:                                               ; preds = %82
  %98 = load i32, i32* %8, align 4
  %99 = sub nsw i32 %98, 10
  %100 = add nsw i32 %99, 65
  %101 = trunc i32 %100 to i8
  %102 = load i32, i32* %5, align 4
  %103 = sext i32 %102 to i64
  %104 = getelementptr inbounds [32 x i8], [32 x i8]* %11, i64 0, i64 %103
  store i8 %101, i8* %104, align 1
  br label %105

105:                                              ; preds = %97, %90
  %106 = load i64, i64* %9, align 8
  %107 = load i32, i32* %3, align 4
  %108 = sext i32 %107 to i64
  %109 = sdiv i64 %106, %108
  store i64 %109, i64* %9, align 8
  br label %110

110:                                              ; preds = %105
  %111 = load i32, i32* %5, align 4
  %112 = add nsw i32 %111, 1
  store i32 %112, i32* %5, align 4
  br label %79

113:                                              ; preds = %79
  %114 = load i32, i32* %5, align 4
  %115 = sub nsw i32 %114, 1
  store i32 %115, i32* %7, align 4
  br label %116

116:                                              ; preds = %126, %113
  %117 = load i32, i32* %7, align 4
  %118 = icmp sgt i32 %117, 0
  br i1 %118, label %119, label %129

119:                                              ; preds = %116
  %120 = load i32, i32* %7, align 4
  %121 = sext i32 %120 to i64
  %122 = getelementptr inbounds [32 x i8], [32 x i8]* %11, i64 0, i64 %121
  %123 = load i8, i8* %122, align 1
  %124 = sext i8 %123 to i32
  %125 = call i32 (i8*, ...) @printf(i8* getelementptr inbounds ([3 x i8], [3 x i8]* @.str.2, i64 0, i64 0), i32 %124)
  br label %126

126:                                              ; preds = %119
  %127 = load i32, i32* %7, align 4
  %128 = add nsw i32 %127, -1
  store i32 %128, i32* %7, align 4
  br label %116

129:                                              ; preds = %116
  %130 = getelementptr inbounds [32 x i8], [32 x i8]* %11, i64 0, i64 0
  %131 = load i8, i8* %130, align 16
  %132 = sext i8 %131 to i32
  %133 = call i32 (i8*, ...) @printf(i8* getelementptr inbounds ([4 x i8], [4 x i8]* @.str.3, i64 0, i64 0), i32 %132)
  br label %134

134:                                              ; preds = %129, %18
  %135 = call i32 @getchar()
  %136 = call i32 @getchar()
  %137 = call i32 @getchar()
  %138 = call i32 @getchar()
  %139 = call i32 @getchar()
  %140 = call i32 @getchar()
  %141 = call i32 @getchar()
  %142 = call i32 @getchar()
  %143 = call i32 @getchar()
  %144 = load i32, i32* %1, align 4
  ret i32 %144
}

declare dso_local i32 @__isoc99_scanf(i8*, ...) #1

declare dso_local i32 @printf(i8*, ...) #1

; Function Attrs: nounwind readonly
declare dso_local i64 @strlen(i8*) #2

declare dso_local i32 @getchar() #1


!llvm.module.flags = !{!0}
!llvm.ident = !{!1}

!0 = !{i32 1, !"wchar_size", i32 4}
!1 = !{!"clang version 10.0.0-4ubuntu1 "}
